target datalayout = "e-m:e-p270:32:32-p271:32:32-p272:64:64-i64:64-i128:128-f80:128-n8:16:32:64-S128"
target triple = "x86_64-pc-linux-gnu"

%struct.RBasic = type { i64, i64 }
%struct.RString = type { %struct.RBasic, i64, %union.anon.1 }
%union.anon.1 = type { %struct.anon.2 }
%struct.anon.2 = type { ptr, %union.anon.3 }
%union.anon.3 = type { i64 }

@eOSSLError = global i64 0, align 8
@.str.3 = private unnamed_addr constant [42 x i8] c"password must not be longer than %d bytes\00", align 1

; Function Attrs: inlinehint nounwind sspstrong willreturn memory(read) uwtable
define internal i64 @RSTRING_LEN(i64 noundef %0) #5 {
  %2 = alloca i64, align 8
  store i64 %0, ptr %2, align 8, !tbaa !6
  %3 = load i64, ptr %2, align 8, !tbaa !6
  %4 = inttoptr i64 %3 to ptr
  %5 = getelementptr inbounds nuw %struct.RString, ptr %4, i32 0, i32 1
  %6 = load i64, ptr %5, align 8, !tbaa !37
  ret i64 %6
}

; Function Attrs: inlinehint nounwind sspstrong willreturn memory(none) uwtable
define internal zeroext i1 @RB_NIL_P(i64 noundef %0) #9 {
  %2 = alloca i64, align 8
  store i64 %0, ptr %2, align 8, !tbaa !6
  %3 = load i64, ptr %2, align 8, !tbaa !6
  %4 = icmp eq i64 %3, 4
  ret i1 %4
}

; Function Attrs: nounwind sspstrong uwtable
define i64 @ossl_pem_passwd_value(i64 noundef %0) #0 {
  %2 = alloca i64, align 8
  %3 = alloca i64, align 8
  store i64 %0, ptr %3, align 8, !tbaa !6
  %4 = load i64, ptr %3, align 8, !tbaa !6
  %5 = call zeroext i1 @RB_NIL_P(i64 noundef %4) #27
  br i1 %5, label %6, label %7

6:                                                ; preds = %1
  store i64 4, ptr %2, align 8
  br label %16

7:                                                ; preds = %1
  %8 = call i64 @rb_string_value(ptr noundef %3)
  %9 = load i64, ptr %3, align 8, !tbaa !6
  %10 = call i64 @RSTRING_LEN(i64 noundef %9) #24
  %11 = icmp sgt i64 %10, 1024
  br i1 %11, label %12, label %14

12:                                               ; preds = %7
  %13 = load i64, ptr @eOSSLError, align 8, !tbaa !6
  call void (i64, ptr, ...) @ossl_raise(i64 noundef %13, ptr noundef @.str.3, i32 noundef 1024) #23
  unreachable

14:                                               ; preds = %7
  %15 = load i64, ptr %3, align 8, !tbaa !6
  store i64 %15, ptr %2, align 8
  br label %16

16:                                               ; preds = %14, %6
  %17 = load i64, ptr %2, align 8
  ret i64 %17
}