; Function Attrs: nounwind sspstrong uwtable
define i64 @ossl_pem_passwd_value(i64 noundef %0) local_unnamed_addr #0 {
  %2 = alloca i64, align 8
  store i64 %0, ptr %2, align 8, !tbaa !13
  %3 = icmp eq i64 %0, 4
  br i1 %3, label %13, label %4

4:                                                ; preds = %1
  %5 = call i64 @rb_string_value(ptr noundef nonnull %2) #15
  %6 = load i64, ptr %2, align 8, !tbaa !13
  %7 = inttoptr i64 %6 to ptr
  %8 = getelementptr inbounds nuw i8, ptr %7, i64 16
  %9 = load i64, ptr %8, align 8, !tbaa !30
  %10 = icmp sgt i64 %9, 1024
  br i1 %10, label %11, label %13

11:                                               ; preds = %4
  %12 = load i64, ptr @eOSSLError, align 8, !tbaa !13
  call void (i64, ptr, ...) @ossl_raise(i64 noundef %12, ptr noundef nonnull @.str.3, i32 noundef 1024) #16
  unreachable

13:                                               ; preds = %4, %1
  %.0 = phi i64 [ 4, %1 ], [ %6, %4 ]
  ret i64 %.0
}